; Function Attrs: mustprogress nofree norecurse nosync nounwind willreturn memory(readwrite, inaccessiblemem: none) uwtable
define hidden noundef zeroext i16 @_ZNK10ODDLParser5Value16getUnsignedInt16Ev(ptr noundef nonnull readonly align 8 captures(none) dereferenceable(32) %0) local_unnamed_addr #10 align 2 {
  %2 = alloca i16, align 2
  call void @llvm.lifetime.start.p0(i64 2, ptr nonnull %2)
  %3 = getelementptr inbounds nuw i8, ptr %0, i64 16
  %4 = load ptr, ptr %3, align 8
  %5 = getelementptr inbounds nuw i8, ptr %0, i64 8
  %6 = load i64, ptr %5, align 8
  call void @llvm.memcpy.p0.p0.i64(ptr nonnull align 2 %2, ptr align 1 %4, i64 %6, i1 false)
  %.0..0..0..0. = load i16, ptr %2, align 2
  call void @llvm.lifetime.end.p0(i64 2, ptr nonnull %2)
  ret i16 %.0..0..0..0.
}